target datalayout = "e-m:e-p270:32:32-p271:32:32-p272:64:64-i64:64-i128:128-f80:128-n8:16:32:64-S128"
target triple = "x86_64-pc-linux-gnu"

%"class.icu_77::Normalizer" = type <{ %"class.icu_77::UObject", ptr, ptr, i32, i32, ptr, i32, i32, %"class.icu_77::UnicodeString", i32, [4 x i8] }>
%"class.icu_77::UObject" = type { ptr }
%"class.icu_77::UnicodeString" = type { %"class.icu_77::Replaceable", %"union.icu_77::UnicodeString::StackBufferOrFields" }
%"class.icu_77::Replaceable" = type { %"class.icu_77::UObject" }
%"union.icu_77::UnicodeString::StackBufferOrFields" = type { %struct.anon.0, [32 x i8] }
%struct.anon.0 = type { i16, i32, i32, ptr }

; Function Attrs: inlinehint mustprogress nounwind uwtable
define linkonce_odr void @_ZN6icu_7713UnicodeString13setZeroLengthEv(ptr noundef nonnull align 8 dereferenceable(64) %0) #3 comdat align 2 {
  %2 = alloca ptr, align 8
  store ptr %0, ptr %2, align 8, !tbaa !8
  %3 = load ptr, ptr %2, align 8
  %4 = getelementptr inbounds nuw %"class.icu_77::UnicodeString", ptr %3, i32 0, i32 1
  %5 = getelementptr inbounds nuw %struct.anon.0, ptr %4, i32 0, i32 0
  %6 = load i16, ptr %5, align 8, !tbaa !32
  %7 = sext i16 %6 to i32
  %8 = and i32 %7, 31
  %9 = trunc i32 %8 to i16
  store i16 %9, ptr %5, align 8, !tbaa !32
  ret void
}

; Function Attrs: inlinehint mustprogress nounwind uwtable
define linkonce_odr void @_ZN6icu_7713UnicodeString10setToEmptyEv(ptr noundef nonnull align 8 dereferenceable(64) %0) #3 comdat align 2 {
  %2 = alloca ptr, align 8
  store ptr %0, ptr %2, align 8, !tbaa !8
  %3 = load ptr, ptr %2, align 8
  %4 = getelementptr inbounds nuw %"class.icu_77::UnicodeString", ptr %3, i32 0, i32 1
  %5 = getelementptr inbounds nuw %struct.anon.0, ptr %4, i32 0, i32 0
  store i16 2, ptr %5, align 8, !tbaa !32
  ret void
}

; Function Attrs: inlinehint mustprogress nounwind uwtable
define linkonce_odr noundef signext i8 @_ZNK6icu_7713UnicodeString7isBogusEv(ptr noundef nonnull align 8 dereferenceable(64) %0) #3 comdat align 2 {
  %2 = alloca ptr, align 8
  store ptr %0, ptr %2, align 8, !tbaa !8
  %3 = load ptr, ptr %2, align 8
  %4 = getelementptr inbounds nuw %"class.icu_77::UnicodeString", ptr %3, i32 0, i32 1
  %5 = getelementptr inbounds nuw %struct.anon.0, ptr %4, i32 0, i32 0
  %6 = load i16, ptr %5, align 8, !tbaa !32
  %7 = sext i16 %6 to i32
  %8 = and i32 %7, 1
  %9 = trunc i32 %8 to i8
  ret i8 %9
}

; Function Attrs: inlinehint mustprogress uwtable
define linkonce_odr noundef nonnull align 8 dereferenceable(64) ptr @_ZN6icu_7713UnicodeString6removeEv(ptr noundef nonnull align 8 dereferenceable(64) %0) #6 comdat align 2 {
  %2 = alloca ptr, align 8
  store ptr %0, ptr %2, align 8, !tbaa !8
  %3 = load ptr, ptr %2, align 8
  %4 = call noundef signext i8 @_ZNK6icu_7713UnicodeString7isBogusEv(ptr noundef nonnull align 8 dereferenceable(64) %3)
  %5 = icmp ne i8 %4, 0
  br i1 %5, label %6, label %7

6:                                                ; preds = %1
  call void @_ZN6icu_7713UnicodeString10setToEmptyEv(ptr noundef nonnull align 8 dereferenceable(64) %3)
  br label %8

7:                                                ; preds = %1
  call void @_ZN6icu_7713UnicodeString13setZeroLengthEv(ptr noundef nonnull align 8 dereferenceable(64) %3)
  br label %8

8:                                                ; preds = %7, %6
  ret ptr %3
}

; Function Attrs: mustprogress uwtable
define void @_ZN6icu_7710Normalizer11clearBufferEv(ptr noundef nonnull align 8 dereferenceable(116) %0) #1 align 2 {
  %2 = alloca ptr, align 8
  store ptr %0, ptr %2, align 8, !tbaa !3
  %3 = load ptr, ptr %2, align 8
  %4 = getelementptr inbounds nuw %"class.icu_77::Normalizer", ptr %3, i32 0, i32 8
  %5 = call noundef nonnull align 8 dereferenceable(64) ptr @_ZN6icu_7713UnicodeString6removeEv(ptr noundef nonnull align 8 dereferenceable(64) %4)
  %6 = getelementptr inbounds nuw %"class.icu_77::Normalizer", ptr %3, i32 0, i32 9
  store i32 0, ptr %6, align 8, !tbaa !29
  ret void
}

; Function Attrs: inlinehint mustprogress uwtable
define linkonce_odr noundef i32 @_ZN6icu_7717CharacterIterator10setToStartEv(ptr noundef nonnull align 8 dereferenceable(24) %0) #6 comdat align 2 {
  %2 = alloca ptr, align 8
  store ptr %0, ptr %2, align 8, !tbaa !44
  %3 = load ptr, ptr %2, align 8
  %4 = load ptr, ptr %3, align 8, !tbaa !12
  %5 = getelementptr inbounds ptr, ptr %4, i64 24
  %6 = load ptr, ptr %5, align 8
  %7 = call noundef i32 %6(ptr noundef nonnull align 8 dereferenceable(24) %3, i32 noundef 0, i32 noundef 0)
  ret i32 %7
}

; Function Attrs: mustprogress uwtable
define void @_ZN6icu_7710Normalizer5resetEv(ptr noundef nonnull align 8 dereferenceable(116) %0) #1 align 2 {
  %2 = alloca ptr, align 8
  store ptr %0, ptr %2, align 8, !tbaa !3
  %3 = load ptr, ptr %2, align 8
  %4 = getelementptr inbounds nuw %"class.icu_77::Normalizer", ptr %3, i32 0, i32 5
  %5 = load ptr, ptr %4, align 8, !tbaa !26
  %6 = call noundef i32 @_ZN6icu_7717CharacterIterator10setToStartEv(ptr noundef nonnull align 8 dereferenceable(24) %5)
  %7 = getelementptr inbounds nuw %"class.icu_77::Normalizer", ptr %3, i32 0, i32 7
  store i32 %6, ptr %7, align 4, !tbaa !28
  %8 = getelementptr inbounds nuw %"class.icu_77::Normalizer", ptr %3, i32 0, i32 6
  store i32 %6, ptr %8, align 8, !tbaa !27
  call void @_ZN6icu_7710Normalizer11clearBufferEv(ptr noundef nonnull align 8 dereferenceable(116) %3)
  ret void
}

; Function Attrs: inlinehint mustprogress nounwind uwtable
define internal noundef signext i8 @_ZL9U_FAILURE10UErrorCode(i32 noundef %0) #3 {
  %2 = alloca i32, align 4
  store i32 %0, ptr %2, align 4, !tbaa !33
  %3 = load i32, ptr %2, align 4, !tbaa !33
  %4 = icmp sgt i32 %3, 0
  %5 = zext i1 %4 to i8
  ret i8 %5
}

; Function Attrs: mustprogress uwtable
define void @_ZN6icu_7710Normalizer7setTextERKNS_13UnicodeStringER10UErrorCode(ptr noundef nonnull align 8 dereferenceable(116) %0, ptr noundef nonnull align 8 dereferenceable(64) %1, ptr noundef nonnull align 4 dereferenceable(4) %2) #1 align 2 personality ptr @__gxx_personality_v0 {
  %4 = alloca ptr, align 8
  %5 = alloca ptr, align 8
  %6 = alloca ptr, align 8
  %7 = alloca ptr, align 8
  %8 = alloca ptr, align 8
  %9 = alloca i1, align 1
  %10 = alloca ptr, align 8
  %11 = alloca i32, align 4
  %12 = alloca i32, align 4
  store ptr %0, ptr %4, align 8, !tbaa !3
  store ptr %1, ptr %5, align 8, !tbaa !8
  store ptr %2, ptr %6, align 8, !tbaa !49
  %13 = load ptr, ptr %4, align 8
  %14 = load ptr, ptr %6, align 8, !tbaa !49
  %15 = load i32, ptr %14, align 4, !tbaa !33
  %16 = call noundef signext i8 @_ZL9U_FAILURE10UErrorCode(i32 noundef %15)
  %17 = icmp ne i8 %16, 0
  br i1 %17, label %18, label %19

18:                                               ; preds = %3
  br label %52

19:                                               ; preds = %3
  call void @llvm.lifetime.start.p0(i64 8, ptr %7) #9
  %20 = call noundef ptr @_ZN6icu_777UMemorynwEm(i64 noundef 96) #9
  %21 = icmp eq ptr %20, null
  store i1 false, ptr %9, align 1
  br i1 %21, label %25, label %22

22:                                               ; preds = %19
  store ptr %20, ptr %8, align 8
  store i1 true, ptr %9, align 1
  %23 = load ptr, ptr %5, align 8, !tbaa !8
  invoke void @_ZN6icu_7723StringCharacterIteratorC1ERKNS_13UnicodeStringE(ptr noundef nonnull align 8 dereferenceable(96) %20, ptr noundef nonnull align 8 dereferenceable(64) %23)
          to label %24 unwind label %31

24:                                               ; preds = %22
  br label %25

25:                                               ; preds = %24, %19
  %26 = phi ptr [ %20, %24 ], [ null, %19 ]
  store ptr %26, ptr %7, align 8, !tbaa !44
  %27 = load ptr, ptr %7, align 8, !tbaa !44
  %28 = icmp eq ptr %27, null
  br i1 %28, label %29, label %39

29:                                               ; preds = %25
  %30 = load ptr, ptr %6, align 8, !tbaa !49
  store i32 7, ptr %30, align 4, !tbaa !33
  store i32 1, ptr %12, align 4
  br label %50

31:                                               ; preds = %22
  %32 = landingpad { ptr, i32 }
          cleanup
  %33 = extractvalue { ptr, i32 } %32, 0
  store ptr %33, ptr %10, align 8
  %34 = extractvalue { ptr, i32 } %32, 1
  store i32 %34, ptr %11, align 4
  %35 = load i1, ptr %9, align 1
  br i1 %35, label %36, label %38

36:                                               ; preds = %31
  %37 = load ptr, ptr %8, align 8
  call void @_ZN6icu_777UMemorydlEPv(ptr noundef %37) #9
  br label %38

38:                                               ; preds = %36, %31
  call void @llvm.lifetime.end.p0(i64 8, ptr %7) #9
  br label %53

39:                                               ; preds = %25
  %40 = getelementptr inbounds nuw %"class.icu_77::Normalizer", ptr %13, i32 0, i32 5
  %41 = load ptr, ptr %40, align 8, !tbaa !26
  %42 = icmp eq ptr %41, null
  br i1 %42, label %47, label %43

43:                                               ; preds = %39
  %44 = load ptr, ptr %41, align 8, !tbaa !12
  %45 = getelementptr inbounds ptr, ptr %44, i64 1
  %46 = load ptr, ptr %45, align 8
  call void %46(ptr noundef nonnull align 8 dereferenceable(24) %41) #9
  br label %47

47:                                               ; preds = %43, %39
  %48 = load ptr, ptr %7, align 8, !tbaa !44
  %49 = getelementptr inbounds nuw %"class.icu_77::Normalizer", ptr %13, i32 0, i32 5
  store ptr %48, ptr %49, align 8, !tbaa !26
  call void @_ZN6icu_7710Normalizer5resetEv(ptr noundef nonnull align 8 dereferenceable(116) %13)
  store i32 0, ptr %12, align 4
  br label %50

50:                                               ; preds = %47, %29
  call void @llvm.lifetime.end.p0(i64 8, ptr %7) #9
  %51 = load i32, ptr %12, align 4
  switch i32 %51, label %58 [
    i32 0, label %52
    i32 1, label %52
  ]

52:                                               ; preds = %18, %50, %50
  ret void

53:                                               ; preds = %38
  %54 = load ptr, ptr %10, align 8
  %55 = load i32, ptr %11, align 4
  %56 = insertvalue { ptr, i32 } poison, ptr %54, 0
  %57 = insertvalue { ptr, i32 } %56, i32 %55, 1
  resume { ptr, i32 } %57

58:                                               ; preds = %50
  unreachable
}